Certificate:
    Data:
        Version: 3 (0x2)
        Serial Number: 268435667 (0x100000d3)
        Signature Algorithm: sha256WithRSAEncryption
        Issuer: C=DE, ST=Hessen, O=privacyidea, CN=CA001
        Validity
            Not Before: May 26 12:23:02 2021 GMT
            Not After : May 26 12:23:02 2022 GMT
        Subject: C=DE, ST=Hessen, O=privacyidea, CN=requester.localdomain
        Subject Public Key Info:
            Public Key Algorithm: rsaEncryption
                RSA Public-Key: (2048 bit)
                Modulus:
                    00:cd:be:14:4f:fa:ce:01:3f:42:22:1b:1d:9c:af:
                    dd:92:d2:7f:db:6c:b7:3e:39:43:43:6b:13:03:f1:
                    05:f4:07:74:bc:76:69:28:0b:af:19:8e:d7:fc:e3:
                    cd:c6:58:f2:ca:7f:08:6d:53:fc:07:02:44:24:c6:
                    b4:34:4c:8c:04:fe:33:0e:40:e2:20:ba:02:73:5a:
                    f7:f5:4f:63:6e:cc:c6:b6:df:54:1d:37:39:7d:51:
                    36:26:5f:bd:dc:3f:a8:8b:6b:a2:ae:b6:9d:d6:21:
                    e7:df:41:b8:7a:28:2a:68:48:ca:a8:2d:ed:e1:e9:
                    46:5e:5a:72:6d:b4:84:38:87:91:fd:94:11:0b:28:
                    84:c6:c2:2f:2a:fb:01:f9:36:7a:09:75:d1:33:88:
                    3c:73:41:5b:c8:bf:94:89:70:a1:f0:c0:b9:2e:50:
                    53:1e:b1:17:64:69:f4:2d:81:e0:a9:0d:0e:32:e9:
                    ba:55:8a:85:f1:1b:6f:49:79:b4:7f:88:c3:0d:3e:
                    54:88:9b:3d:1f:38:8c:04:f3:ee:6a:63:2b:f5:c6:
                    db:b4:83:aa:c4:78:41:3a:7d:4b:e1:c8:3e:71:ca:
                    1b:61:59:ea:c6:c4:ca:32:5e:c9:e9:bf:12:29:e6:
                    c6:c3:63:fe:a0:55:da:7a:f1:60:98:4d:26:ed:fa:
                    70:2d
                Exponent: 65537 (0x10001)
        X509v3 extensions:
            X509v3 Key Usage: 
                Digital Signature, Key Encipherment
            X509v3 Basic Constraints: 
                CA:FALSE
            Netscape Cert Type: 
                SSL Server
            Netscape Comment: 
                OpenSSL Generated Server Certificate
            X509v3 Subject Key Identifier: 
                53:3F:ED:5D:09:07:B3:65:7B:AB:45:C9:24:5B:09:77:80:0A:96:ED
            X509v3 Authority Key Identifier: 
                keyid:F4:A7:C0:CC:91:46:AF:64:F3:91:F2:27:F8:C8:B2:6F:8A:87:32:73
                DirName:/C=DE/ST=Hessen/O=privacyidea/CN=CA001
                serial:FB:C8:EB:AC:83:CD:12:07

            X509v3 Extended Key Usage: 
                TLS Web Server Authentication
    Signature Algorithm: sha256WithRSAEncryption
         45:b5:31:70:48:c7:51:14:20:07:54:7a:b0:0a:25:3b:4d:92:
         0c:dc:7a:99:ef:0e:fa:b3:56:73:a9:93:c0:25:01:e4:33:1f:
         f0:31:e1:bb:c0:56:93:fe:af:71:60:55:53:f6:d7:61:ca:46:
         34:ba:fc:b2:13:02:16:d7:81:0e:be:dc:7e:53:2f:ca:1d:f6:
         14:78:f9:bb:7e:57:26:72:f6:48:a7:f5:b2:e7:b1:79:50:4e:
         54:ef:f4:a4:36:e1:18:b9:69:35:2a:25:ba:d7:80:b3:77:9b:
         18:d5:be:dc:af:d7:79:38:57:d4:14:1f:3c:05:d5:b9:b7:f3:
         9f:8b:76:b2:3f:89:50:e8:d8:ca:d0:be:2f:50:f4:ba:9f:7d:
         89:ab:37:4a:34:75:64:0a:0e:e9:1e:cd:ff:85:ae:7d:0c:68:
         82:e5:db:54:b9:e9:fb:44:b9:d2:af:9a:23:af:46:7a:2c:d5:
         d5:98:c8:50:2a:f0:cf:e8:9c:0c:4d:d7:6c:d8:5e:8a:e8:5f:
         2d:b1:bf:67:df:ce:3e:1d:41:71:cd:3d:d5:99:7b:f9:8b:28:
         e4:b4:49:72:f0:29:de:a6:64:c6:14:6c:7c:ae:f8:fb:d0:cd:
         ea:9b:ed:b2:0e:3f:f0:e3:46:44:75:b8:91:cb:a0:d8:81:45:
         fe:ef:36:22
-----BEGIN CERTIFICATE-----
MIIEJjCCAw6gAwIBAgIEEAAA0zANBgkqhkiG9w0BAQsFADBEMQswCQYDVQQGEwJE
RTEPMA0GA1UECAwGSGVzc2VuMRQwEgYDVQQKDAtwcml2YWN5aWRlYTEOMAwGA1UE
AwwFQ0EwMDEwHhcNMjEwNTI2MTIyMzAyWhcNMjIwNTI2MTIyMzAyWjBUMQswCQYD
VQQGEwJERTEPMA0GA1UECAwGSGVzc2VuMRQwEgYDVQQKDAtwcml2YWN5aWRlYTEe
MBwGA1UEAwwVcmVxdWVzdGVyLmxvY2FsZG9tYWluMIIBIjANBgkqhkiG9w0BAQEF
AAOCAQ8AMIIBCgKCAQEAzb4UT/rOAT9CIhsdnK/dktJ/22y3PjlDQ2sTA/EF9Ad0
vHZpKAuvGY7X/OPNxljyyn8IbVP8BwJEJMa0NEyMBP4zDkDiILoCc1r39U9jbszG
tt9UHTc5fVE2Jl+93D+oi2uirrad1iHn30G4eigqaEjKqC3t4elGXlpybbSEOIeR
/ZQRCyiExsIvKvsB+TZ6CXXRM4g8c0FbyL+UiXCh8MC5LlBTHrEXZGn0LYHgqQ0O
Mum6VYqF8RtvSXm0f4jDDT5UiJs9HziMBPPuamMr9cbbtIOqxHhBOn1L4cg+ccob
YVnqxsTKMl7J6b8SKebGw2P+oFXaevFgmE0m7fpwLQIDAQABo4IBDjCCAQowCwYD
VR0PBAQDAgWgMAkGA1UdEwQCMAAwEQYJYIZIAYb4QgEBBAQDAgZAMDMGCWCGSAGG
+EIBDQQmFiRPcGVuU1NMIEdlbmVyYXRlZCBTZXJ2ZXIgQ2VydGlmaWNhdGUwHQYD
VR0OBBYEFFM/7V0JB7Nle6tFySRbCXeACpbtMHQGA1UdIwRtMGuAFPSnwMyRRq9k
85HyJ/jIsm+KhzJzoUikRjBEMQswCQYDVQQGEwJERTEPMA0GA1UECAwGSGVzc2Vu
MRQwEgYDVQQKDAtwcml2YWN5aWRlYTEOMAwGA1UEAwwFQ0EwMDGCCQD7yOusg80S
BzATBgNVHSUEDDAKBggrBgEFBQcDATANBgkqhkiG9w0BAQsFAAOCAQEARbUxcEjH
URQgB1R6sAolO02SDNx6me8O+rNWc6mTwCUB5DMf8DHhu8BWk/6vcWBVU/bXYcpG
NLr8shMCFteBDr7cflMvyh32FHj5u35XJnL2SKf1suexeVBOVO/0pDbhGLlpNSol
uteAs3ebGNW+3K/XeThX1BQfPAXVubfzn4t2sj+JUOjYytC+L1D0up99ias3SjR1
ZAoO6R7N/4WufQxoguXbVLnp+0S50q+aI69GeizV1ZjIUCrwz+icDE3XbNheiuhf
LbG/Z9/OPh1Bcc091Zl7+Yso5LRJcvAp3qZkxhRsfK74+9DN6pvtsg4/8ONGRHW4
kcug2IFF/u82Ig==
-----END CERTIFICATE-----
