Certificate:
    Data:
        Version: 3 (0x2)
        Serial Number: 268435670 (0x100000d6)
        Signature Algorithm: sha256WithRSAEncryption
        Issuer: C=DE, ST=Hessen, O=privacyidea, CN=CA001
        Validity
            Not Before: May 26 12:24:54 2021 GMT
            Not After : May 26 12:24:54 2022 GMT
        Subject: CN=selfservice,CN=user,O=realm1/emailAddress=meine
        Subject Public Key Info:
            Public Key Algorithm: rsaEncryption
                RSA Public-Key: (2048 bit)
                Modulus:
                    00:cf:3c:d4:33:0e:12:c4:e6:da:cd:b6:56:a1:1c:
                    26:bb:26:1c:8a:4a:73:a8:58:8a:b6:1e:b3:8b:99:
                    d2:1d:07:c2:92:89:79:c0:69:d8:c8:df:28:61:98:
                    1e:b3:fe:ae:2b:bd:78:a9:f7:6e:47:dc:a3:a0:16:
                    8c:85:02:c1:4e:92:fd:72:6e:f0:c8:03:29:9b:b8:
                    00:6e:c0:83:95:c8:34:20:36:9c:b3:e5:e4:e6:76:
                    73:a3:1a:ad:40:96:e0:53:54:00:ec:76:79:9a:c6:
                    0d:7e:b6:bd:29:ec:83:f3:cb:89:a4:cb:6c:00:ba:
                    0c:c5:78:0f:ff:69:b8:94:f4:04:70:43:3f:d8:9e:
                    d7:a7:fb:5d:ce:75:8e:da:e7:c4:07:b1:9d:de:6f:
                    88:4b:b6:4d:9a:cf:f9:bc:fa:9f:cd:32:6d:f6:3a:
                    0b:0d:23:42:78:ec:97:42:bf:0e:4d:60:56:e1:d3:
                    02:f2:19:cb:84:57:90:e5:70:a1:a2:83:35:86:e2:
                    da:86:9f:f9:8a:c4:79:b3:52:28:da:cb:bb:34:ca:
                    d3:da:91:4a:cf:8d:76:a2:b2:6b:9b:f9:96:fd:09:
                    2a:da:11:23:4d:f0:cb:d6:b2:b1:0e:12:6c:9a:19:
                    65:98:87:ca:e4:ee:24:ce:44:ac:90:8f:9d:1b:c5:
                    2a:9d
                Exponent: 65537 (0x10001)
        X509v3 extensions:
            X509v3 Key Usage: 
                Digital Signature, Key Encipherment
            X509v3 Basic Constraints: 
                CA:FALSE
            Netscape Cert Type: 
                SSL Server
            Netscape Comment: 
                OpenSSL Generated Server Certificate
            X509v3 Subject Key Identifier: 
                4D:07:90:AD:FF:1D:0D:E7:1A:DD:D6:2E:FA:BA:34:CB:AA:1F:24:C6
            X509v3 Authority Key Identifier: 
                keyid:F4:A7:C0:CC:91:46:AF:64:F3:91:F2:27:F8:C8:B2:6F:8A:87:32:73
                DirName:/C=DE/ST=Hessen/O=privacyidea/CN=CA001
                serial:FB:C8:EB:AC:83:CD:12:07

            X509v3 Extended Key Usage: 
                TLS Web Server Authentication
    Signature Algorithm: sha256WithRSAEncryption
         b1:e3:c3:44:c5:f1:f3:0c:52:55:85:24:c2:a4:5c:6f:8f:9d:
         31:91:c8:c8:aa:be:db:53:49:a0:80:cc:d0:aa:d6:d4:8c:82:
         d1:ae:6a:ba:06:63:d6:3d:97:0b:cc:29:69:c6:6c:bd:cb:b8:
         59:8a:73:37:ef:0f:9f:21:ef:4f:c3:8d:ef:a8:49:d3:7a:c8:
         89:0f:61:23:0a:0b:35:df:c6:bc:90:1c:ce:11:3b:31:53:d4:
         c2:bb:a7:18:04:de:d0:af:a6:a0:db:db:30:35:17:e1:6a:31:
         2e:28:00:12:54:98:ec:38:31:ec:1a:c7:67:26:eb:52:22:7a:
         02:d6:76:24:70:35:2a:ee:f4:5c:3e:40:78:4c:45:b5:4c:bf:
         a2:b7:55:6f:07:5c:9e:08:c1:8c:50:fb:c1:77:bf:6e:35:01:
         ef:c4:1e:13:a8:0a:a0:5d:61:60:28:35:1b:4b:20:35:8d:5b:
         c6:4b:9c:37:2f:ee:f0:ef:2d:b9:c8:82:de:30:02:c3:eb:2b:
         86:78:9d:ed:7e:f7:30:cc:69:8d:60:ee:a0:78:4c:df:78:12:
         d8:d8:be:f7:61:a7:91:0b:64:cb:f3:7b:2e:c9:aa:98:93:77:
         10:02:7a:3c:1e:0d:2e:ab:45:40:3e:eb:1a:5b:c9:ef:25:62:
         a3:31:ca:1f
-----BEGIN CERTIFICATE-----
MIIEDzCCAvegAwIBAgIEEAAA1jANBgkqhkiG9w0BAQsFADBEMQswCQYDVQQGEwJE
RTEPMA0GA1UECAwGSGVzc2VuMRQwEgYDVQQKDAtwcml2YWN5aWRlYTEOMAwGA1UE
AwwFQ0EwMDEwHhcNMjEwNTI2MTIyNDU0WhcNMjIwNTI2MTIyNDU0WjA9MSUwIwYD
VQQDDBxzZWxmc2VydmljZSxDTj11c2VyLE89cmVhbG0xMRQwEgYJKoZIhvcNAQkB
FgVtZWluZTCCASIwDQYJKoZIhvcNAQEBBQADggEPADCCAQoCggEBAM881DMOEsTm
2s22VqEcJrsmHIpKc6hYirYes4uZ0h0HwpKJecBp2MjfKGGYHrP+riu9eKn3bkfc
o6AWjIUCwU6S/XJu8MgDKZu4AG7Ag5XINCA2nLPl5OZ2c6MarUCW4FNUAOx2eZrG
DX62vSnsg/PLiaTLbAC6DMV4D/9puJT0BHBDP9ie16f7Xc51jtrnxAexnd5viEu2
TZrP+bz6n80ybfY6Cw0jQnjsl0K/Dk1gVuHTAvIZy4RXkOVwoaKDNYbi2oaf+YrE
ebNSKNrLuzTK09qRSs+NdqKya5v5lv0JKtoRI03wy9aysQ4SbJoZZZiHyuTuJM5E
rJCPnRvFKp0CAwEAAaOCAQ4wggEKMAsGA1UdDwQEAwIFoDAJBgNVHRMEAjAAMBEG
CWCGSAGG+EIBAQQEAwIGQDAzBglghkgBhvhCAQ0EJhYkT3BlblNTTCBHZW5lcmF0
ZWQgU2VydmVyIENlcnRpZmljYXRlMB0GA1UdDgQWBBRNB5Ct/x0N5xrd1i76ujTL
qh8kxjB0BgNVHSMEbTBrgBT0p8DMkUavZPOR8if4yLJviocyc6FIpEYwRDELMAkG
A1UEBhMCREUxDzANBgNVBAgMBkhlc3NlbjEUMBIGA1UECgwLcHJpdmFjeWlkZWEx
DjAMBgNVBAMMBUNBMDAxggkA+8jrrIPNEgcwEwYDVR0lBAwwCgYIKwYBBQUHAwEw
DQYJKoZIhvcNAQELBQADggEBALHjw0TF8fMMUlWFJMKkXG+PnTGRyMiqvttTSaCA
zNCq1tSMgtGuaroGY9Y9lwvMKWnGbL3LuFmKczfvD58h70/Dje+oSdN6yIkPYSMK
CzXfxryQHM4ROzFT1MK7pxgE3tCvpqDb2zA1F+FqMS4oABJUmOw4Mewax2cm61Ii
egLWdiRwNSru9Fw+QHhMRbVMv6K3VW8HXJ4IwYxQ+8F3v241Ae/EHhOoCqBdYWAo
NRtLIDWNW8ZLnDcv7vDvLbnIgt4wAsPrK4Z4ne1+9zDMaY1g7qB4TN94EtjYvvdh
p5ELZMvzey7JqpiTdxACejweDS6rRUA+6xpbye8lYqMxyh8=
-----END CERTIFICATE-----
