Certificate:
    Data:
        Version: 3 (0x2)
        Serial Number: 268435669 (0x100000d5)
        Signature Algorithm: sha256WithRSAEncryption
        Issuer: C=DE, ST=Hessen, O=privacyidea, CN=CA001
        Validity
            Not Before: May 26 12:23:03 2021 GMT
            Not After : May 26 12:23:03 2022 GMT
        Subject: OU=realm1, CN=cornelius/emailAddress=user@localhost.localdomain
        Subject Public Key Info:
            Public Key Algorithm: rsaEncryption
                RSA Public-Key: (2048 bit)
                Modulus:
                    00:d1:df:65:08:c6:0e:ae:59:cb:3f:90:f7:52:78:
                    43:3b:9f:de:66:d8:37:40:dd:31:81:f1:7e:11:c3:
                    41:fa:0d:fc:31:a1:a4:07:f3:b6:a5:57:42:bc:57:
                    70:31:50:57:1d:3c:a0:17:67:ad:d8:54:f5:9b:1b:
                    52:c1:4c:01:d4:b1:1b:73:1a:47:06:be:40:25:e4:
                    1c:c6:fc:49:64:d1:d2:d1:28:76:53:76:9e:c2:9b:
                    d5:ed:51:12:ee:fb:a5:2d:dc:ab:1d:b3:92:6a:4a:
                    80:55:9c:e9:5b:16:aa:1f:e0:32:2a:d6:b0:55:e1:
                    b0:d1:f3:f6:00:f7:0f:c2:f3:20:10:d3:e6:5f:20:
                    97:9b:3d:3b:98:7c:62:a8:c7:f5:37:98:4b:b3:0b:
                    5a:96:d8:0d:43:8d:f6:0d:ad:19:95:de:6c:0c:b5:
                    33:d2:80:98:8c:2c:a0:74:ed:6e:a3:5b:60:45:b1:
                    03:48:e4:ec:a8:ef:e0:43:ba:39:e0:d5:ae:eb:f5:
                    3e:df:67:c1:3f:d6:11:f8:33:2c:3e:4d:74:9b:93:
                    bd:b1:26:9b:70:00:df:6c:79:94:cd:f4:7e:63:85:
                    e5:7a:9c:0a:d9:2c:e4:08:29:59:d7:03:11:d7:ed:
                    5c:12:b0:9f:1f:d8:1f:ae:8a:33:19:ec:be:31:e3:
                    30:d3
                Exponent: 65537 (0x10001)
        X509v3 extensions:
            X509v3 Key Usage: 
                Digital Signature, Key Encipherment
            X509v3 Basic Constraints: 
                CA:FALSE
            Netscape Cert Type: 
                SSL Server
            Netscape Comment: 
                OpenSSL Generated Server Certificate
            X509v3 Subject Key Identifier: 
                81:88:9E:9A:AF:1D:7E:AC:97:F3:BB:2A:DA:FA:96:E0:1C:96:C9:F1
            X509v3 Authority Key Identifier: 
                keyid:F4:A7:C0:CC:91:46:AF:64:F3:91:F2:27:F8:C8:B2:6F:8A:87:32:73
                DirName:/C=DE/ST=Hessen/O=privacyidea/CN=CA001
                serial:FB:C8:EB:AC:83:CD:12:07

            X509v3 Extended Key Usage: 
                TLS Web Server Authentication
    Signature Algorithm: sha256WithRSAEncryption
         06:19:d7:ec:7e:15:5c:c8:af:c3:d3:8a:1b:cf:0a:3b:40:68:
         7f:e9:69:3c:13:b9:04:dc:14:47:26:ee:1b:16:f3:da:80:b9:
         93:b2:d6:9c:47:68:d9:44:e9:67:a5:92:e5:93:47:7f:04:4e:
         ac:18:7a:16:16:42:0d:20:90:79:71:00:2f:06:c7:6d:5e:a9:
         c8:fa:61:fc:0a:f7:3a:d3:d6:89:8f:f3:f7:f8:14:cc:0b:5f:
         51:fb:d2:97:46:e0:10:12:6f:cf:37:b2:db:dc:85:20:0c:14:
         bd:06:e4:ac:12:66:9c:04:7b:ad:10:2a:d2:bf:a0:b7:c6:61:
         c3:e3:d2:ec:0e:11:1a:b3:99:4e:09:2f:58:d9:a8:06:ca:84:
         21:4d:a3:2e:93:bd:19:28:00:09:16:a9:24:1d:c2:5c:6f:c3:
         7b:ae:d5:24:98:3c:f9:57:9a:7a:50:8d:44:bb:ef:6e:1d:f5:
         f7:21:32:41:f5:ba:9e:bd:b4:0a:86:dd:b9:56:34:74:f3:fe:
         b1:64:c5:e4:0d:f9:b2:97:7e:67:75:84:d6:11:af:e1:ae:28:
         f0:2a:39:8f:00:02:fe:aa:8a:7a:a9:d0:51:57:c9:0e:b4:36:
         ae:1e:48:78:f7:22:c1:27:67:66:53:3e:e4:65:f1:9a:a8:4f:
         f1:a7:8c:66
-----BEGIN CERTIFICATE-----
MIIEIjCCAwqgAwIBAgIEEAAA1TANBgkqhkiG9w0BAQsFADBEMQswCQYDVQQGEwJE
RTEPMA0GA1UECAwGSGVzc2VuMRQwEgYDVQQKDAtwcml2YWN5aWRlYTEOMAwGA1UE
AwwFQ0EwMDEwHhcNMjEwNTI2MTIyMzAzWhcNMjIwNTI2MTIyMzAzWjBQMQ8wDQYD
VQQLDAZyZWFsbTExEjAQBgNVBAMMCWNvcm5lbGl1czEpMCcGCSqGSIb3DQEJARYa
dXNlckBsb2NhbGhvc3QubG9jYWxkb21haW4wggEiMA0GCSqGSIb3DQEBAQUAA4IB
DwAwggEKAoIBAQDR32UIxg6uWcs/kPdSeEM7n95m2DdA3TGB8X4Rw0H6DfwxoaQH
87alV0K8V3AxUFcdPKAXZ63YVPWbG1LBTAHUsRtzGkcGvkAl5BzG/Elk0dLRKHZT
dp7Cm9XtURLu+6Ut3Ksds5JqSoBVnOlbFqof4DIq1rBV4bDR8/YA9w/C8yAQ0+Zf
IJebPTuYfGKox/U3mEuzC1qW2A1DjfYNrRmV3mwMtTPSgJiMLKB07W6jW2BFsQNI
5Oyo7+BDujng1a7r9T7fZ8E/1hH4Myw+TXSbk72xJptwAN9seZTN9H5jheV6nArZ
LOQIKVnXAxHX7VwSsJ8f2B+uijMZ7L4x4zDTAgMBAAGjggEOMIIBCjALBgNVHQ8E
BAMCBaAwCQYDVR0TBAIwADARBglghkgBhvhCAQEEBAMCBkAwMwYJYIZIAYb4QgEN
BCYWJE9wZW5TU0wgR2VuZXJhdGVkIFNlcnZlciBDZXJ0aWZpY2F0ZTAdBgNVHQ4E
FgQUgYiemq8dfqyX87sq2vqW4ByWyfEwdAYDVR0jBG0wa4AU9KfAzJFGr2TzkfIn
+Miyb4qHMnOhSKRGMEQxCzAJBgNVBAYTAkRFMQ8wDQYDVQQIDAZIZXNzZW4xFDAS
BgNVBAoMC3ByaXZhY3lpZGVhMQ4wDAYDVQQDDAVDQTAwMYIJAPvI66yDzRIHMBMG
A1UdJQQMMAoGCCsGAQUFBwMBMA0GCSqGSIb3DQEBCwUAA4IBAQAGGdfsfhVcyK/D
04obzwo7QGh/6Wk8E7kE3BRHJu4bFvPagLmTstacR2jZROlnpZLlk0d/BE6sGHoW
FkINIJB5cQAvBsdtXqnI+mH8Cvc609aJj/P3+BTMC19R+9KXRuAQEm/PN7Lb3IUg
DBS9BuSsEmacBHutECrSv6C3xmHD49LsDhEas5lOCS9Y2agGyoQhTaMuk70ZKAAJ
FqkkHcJcb8N7rtUkmDz5V5p6UI1Eu+9uHfX3ITJB9bqevbQKht25VjR08/6xZMXk
Dfmyl35ndYTWEa/hrijwKjmPAAL+qop6qdBRV8kOtDauHkh49yLBJ2dmUz7kZfGa
qE/xp4xm
-----END CERTIFICATE-----
