Certificate:
    Data:
        Version: 3 (0x2)
        Serial Number: 268435668 (0x100000d4)
        Signature Algorithm: sha256WithRSAEncryption
        Issuer: C=DE, ST=Hessen, O=privacyidea, CN=CA001
        Validity
            Not Before: May 26 12:23:03 2021 GMT
            Not After : May 26 12:23:03 2022 GMT
        Subject: CN=cn=cornelius
        Subject Public Key Info:
            Public Key Algorithm: rsaEncryption
                RSA Public-Key: (2048 bit)
                Modulus:
                    00:ce:a4:39:30:25:73:e4:9d:e6:37:3b:85:59:83:
                    ef:a3:6e:f9:83:b9:f7:48:b0:0b:d5:e8:05:40:61:
                    cd:c5:5a:bc:11:2f:5b:4e:d0:4f:b8:d0:e8:7f:05:
                    ab:ad:24:0b:90:d4:3f:60:ec:15:b6:4e:be:8e:d9:
                    26:ab:f2:2f:7f:35:c2:a6:a1:bc:52:3a:d9:88:fb:
                    b3:fa:71:20:b9:51:0e:f8:af:0d:16:be:bd:5d:b9:
                    ab:30:d5:ac:6b:3c:bc:ee:28:4a:4f:6f:d4:09:15:
                    f7:98:af:77:db:36:15:2e:1e:ee:0f:d0:d9:60:ad:
                    db:b9:c4:3f:c6:25:32:f9:e3:e9:50:b8:ec:84:a0:
                    c4:d2:9c:fd:ce:25:80:85:7e:3a:ad:4c:a7:40:1b:
                    0a:58:18:9f:c2:5e:36:e1:d1:44:e9:46:b6:dc:b4:
                    28:a2:ec:ed:02:f7:25:79:e1:86:8e:69:67:52:ee:
                    82:21:b7:84:2d:cc:e7:a8:39:57:7d:a3:1e:e9:50:
                    63:77:29:ab:e4:a5:ff:dc:ee:4c:4b:5e:08:2b:62:
                    08:2d:75:b8:26:6c:93:eb:f5:45:ea:cd:83:58:53:
                    15:46:e6:6b:43:c1:2f:d9:88:4b:3d:d5:fd:0c:ff:
                    51:52:ed:54:fb:27:2d:59:ef:4c:50:ce:71:cd:eb:
                    5a:99
                Exponent: 65537 (0x10001)
        X509v3 extensions:
            X509v3 Key Usage: 
                Digital Signature, Key Encipherment
            X509v3 Basic Constraints: 
                CA:FALSE
            Netscape Cert Type: 
                SSL Server
            Netscape Comment: 
                OpenSSL Generated Server Certificate
            X509v3 Subject Key Identifier: 
                0E:D5:BA:4E:7D:92:57:15:FD:61:4E:34:5B:E9:62:D0:20:1C:7D:08
            X509v3 Authority Key Identifier: 
                keyid:F4:A7:C0:CC:91:46:AF:64:F3:91:F2:27:F8:C8:B2:6F:8A:87:32:73
                DirName:/C=DE/ST=Hessen/O=privacyidea/CN=CA001
                serial:FB:C8:EB:AC:83:CD:12:07

            X509v3 Extended Key Usage: 
                TLS Web Server Authentication
    Signature Algorithm: sha256WithRSAEncryption
         4f:f5:5e:f6:41:ec:8b:60:9f:a6:fc:c4:bb:d9:0a:99:72:67:
         f5:b0:42:78:48:17:55:d3:25:97:4c:25:f7:e6:11:ac:d4:e0:
         be:43:38:db:ca:07:60:d7:79:4c:60:ce:ad:c5:10:91:73:55:
         5a:61:c6:50:08:5b:54:8d:31:09:8d:28:34:08:ec:55:dd:da:
         69:c1:96:9f:35:1d:e6:b3:a6:f1:28:75:18:5c:e5:f1:13:58:
         e7:b3:65:2f:4d:9b:a0:71:d2:12:cf:99:a7:89:ba:0b:a3:1a:
         86:49:c5:75:e8:78:70:fb:8c:a1:66:62:7c:da:a6:95:24:f5:
         17:18:04:57:0e:f8:ed:c5:32:d3:93:1e:7a:ce:a8:30:82:c4:
         34:f5:2e:c4:10:54:87:e1:4f:ca:2a:67:b9:47:ab:b0:01:b5:
         c9:4d:66:62:69:d5:45:a7:19:70:8f:4e:6a:8b:8d:33:0c:b1:
         b9:61:73:76:04:c6:e5:2d:14:ad:68:44:52:12:a4:e8:65:ea:
         27:45:f7:93:15:97:a1:3f:22:5c:99:3a:09:39:c7:b6:af:11:
         df:73:cc:9a:ba:02:a5:ac:cb:0d:88:52:07:6d:65:01:52:d2:
         d9:d1:f0:52:5b:83:8a:f3:f9:13:bc:96:6c:f3:9d:8a:cd:3c:
         5c:60:14:d1
-----BEGIN CERTIFICATE-----
MIID6TCCAtGgAwIBAgIEEAAA1DANBgkqhkiG9w0BAQsFADBEMQswCQYDVQQGEwJE
RTEPMA0GA1UECAwGSGVzc2VuMRQwEgYDVQQKDAtwcml2YWN5aWRlYTEOMAwGA1UE
AwwFQ0EwMDEwHhcNMjEwNTI2MTIyMzAzWhcNMjIwNTI2MTIyMzAzWjAXMRUwEwYD
VQQDDAxjbj1jb3JuZWxpdXMwggEiMA0GCSqGSIb3DQEBAQUAA4IBDwAwggEKAoIB
AQDOpDkwJXPkneY3O4VZg++jbvmDufdIsAvV6AVAYc3FWrwRL1tO0E+40Oh/Baut
JAuQ1D9g7BW2Tr6O2Sar8i9/NcKmobxSOtmI+7P6cSC5UQ74rw0Wvr1duasw1axr
PLzuKEpPb9QJFfeYr3fbNhUuHu4P0Nlgrdu5xD/GJTL54+lQuOyEoMTSnP3OJYCF
fjqtTKdAGwpYGJ/CXjbh0UTpRrbctCii7O0C9yV54YaOaWdS7oIht4QtzOeoOVd9
ox7pUGN3Kavkpf/c7kxLXggrYggtdbgmbJPr9UXqzYNYUxVG5mtDwS/ZiEs91f0M
/1FS7VT7Jy1Z70xQznHN61qZAgMBAAGjggEOMIIBCjALBgNVHQ8EBAMCBaAwCQYD
VR0TBAIwADARBglghkgBhvhCAQEEBAMCBkAwMwYJYIZIAYb4QgENBCYWJE9wZW5T
U0wgR2VuZXJhdGVkIFNlcnZlciBDZXJ0aWZpY2F0ZTAdBgNVHQ4EFgQUDtW6Tn2S
VxX9YU40W+li0CAcfQgwdAYDVR0jBG0wa4AU9KfAzJFGr2TzkfIn+Miyb4qHMnOh
SKRGMEQxCzAJBgNVBAYTAkRFMQ8wDQYDVQQIDAZIZXNzZW4xFDASBgNVBAoMC3By
aXZhY3lpZGVhMQ4wDAYDVQQDDAVDQTAwMYIJAPvI66yDzRIHMBMGA1UdJQQMMAoG
CCsGAQUFBwMBMA0GCSqGSIb3DQEBCwUAA4IBAQBP9V72QeyLYJ+m/MS72QqZcmf1
sEJ4SBdV0yWXTCX35hGs1OC+Qzjbygdg13lMYM6txRCRc1VaYcZQCFtUjTEJjSg0
COxV3dppwZafNR3ms6bxKHUYXOXxE1jns2UvTZugcdISz5mniboLoxqGScV16Hhw
+4yhZmJ82qaVJPUXGARXDvjtxTLTkx56zqgwgsQ09S7EEFSH4U/KKme5R6uwAbXJ
TWZiadVFpxlwj05qi40zDLG5YXN2BMblLRStaERSEqToZeonRfeTFZehPyJcmToJ
Oce2rxHfc8yaugKlrMsNiFIHbWUBUtLZ0fBSW4OK8/kTvJZs852KzTxcYBTR
-----END CERTIFICATE-----
